; Function Attrs: nounwind ssp uwtable
define dso_local range(i32 -1, 1) i32 @crypto_secretbox_open_easy(ptr noundef %0, ptr noundef nonnull %1, i64 noundef %2, ptr noundef nonnull %3, ptr noundef nonnull %4) local_unnamed_addr #0 {
  %6 = icmp ult i64 %2, 16
  br i1 %6, label %11, label %7

7:                                                ; preds = %5
  %8 = getelementptr i8, ptr %1, i64 16
  %9 = add i64 %2, -16
  %10 = tail call i32 @crypto_secretbox_open_detached(ptr noundef %0, ptr noundef %8, ptr noundef %1, i64 noundef %9, ptr noundef %3, ptr noundef %4)
  br label %11

11:                                               ; preds = %5, %7
  %.0 = phi i32 [ %10, %7 ], [ -1, %5 ]
  ret i32 %.0
}